target datalayout = "e-m:e-p270:32:32-p271:32:32-p272:64:64-i64:64-i128:128-f80:128-n8:16:32:64-S128"
target triple = "x86_64-pc-linux-gnu"

%struct.Aig_Man_t_ = type { ptr, ptr, ptr, ptr, ptr, ptr, ptr, %struct.Aig_Obj_t_, i32, i32, i32, i32, i32, i32, [7 x i32], i32, ptr, i32, ptr, i32, ptr, i32, i32, i32, ptr, i32, i32, i32, i32, i32, ptr, ptr, i32, ptr, ptr, i32, ptr, ptr, i32, i32, i32, ptr, ptr, ptr, ptr, ptr, ptr, ptr, ptr, ptr, ptr, ptr, ptr, ptr, ptr, i32, ptr, ptr, ptr, ptr, i32, i64, i64, i64, ptr, ptr }
%struct.Aig_Obj_t_ = type { %union.anon, ptr, ptr, i64, i32, i32, %union.anon.0 }
%union.anon = type { ptr }
%union.anon.0 = type { ptr }
%struct.Saig_SimObj_t_ = type { i32, i32, i32, [1 x i32] }
%struct.Vec_Ptr_t_ = type { i32, i32, ptr }
%struct.Vec_Int_t_ = type { i32, i32, ptr }
%struct.timespec = type { i64, i64 }

@.str = private unnamed_addr constant [13 x i8] c"seqsimframes\00", align 1
@.str.1 = private unnamed_addr constant [60 x i8] c"The total number of frames (%d) should exceed prefix (%d).\0A\00", align 1
@.str.2 = private unnamed_addr constant [46 x i8] c"Setting the total number of frames to be %d.\0A\00", align 1

; Function Attrs: inlinehint nounwind uwtable
define internal ptr @Vec_IntAlloc(i32 noundef %0) #3 {
  %2 = alloca i32, align 4
  %3 = alloca ptr, align 8
  store i32 %0, ptr %2, align 4, !tbaa !10
  call void @llvm.lifetime.start.p0(i64 8, ptr %3) #9
  %4 = call noalias ptr @malloc(i64 noundef 16) #12
  store ptr %4, ptr %3, align 8, !tbaa !42
  %5 = load i32, ptr %2, align 4, !tbaa !10
  %6 = icmp sgt i32 %5, 0
  br i1 %6, label %7, label %11

7:                                                ; preds = %1
  %8 = load i32, ptr %2, align 4, !tbaa !10
  %9 = icmp slt i32 %8, 16
  br i1 %9, label %10, label %11

10:                                               ; preds = %7
  store i32 16, ptr %2, align 4, !tbaa !10
  br label %11

11:                                               ; preds = %10, %7, %1
  %12 = load ptr, ptr %3, align 8, !tbaa !42
  %13 = getelementptr inbounds nuw %struct.Vec_Int_t_, ptr %12, i32 0, i32 1
  store i32 0, ptr %13, align 4, !tbaa !51
  %14 = load i32, ptr %2, align 4, !tbaa !10
  %15 = load ptr, ptr %3, align 8, !tbaa !42
  %16 = getelementptr inbounds nuw %struct.Vec_Int_t_, ptr %15, i32 0, i32 0
  store i32 %14, ptr %16, align 8, !tbaa !71
  %17 = load ptr, ptr %3, align 8, !tbaa !42
  %18 = getelementptr inbounds nuw %struct.Vec_Int_t_, ptr %17, i32 0, i32 0
  %19 = load i32, ptr %18, align 8, !tbaa !71
  %20 = icmp ne i32 %19, 0
  br i1 %20, label %21, label %28

21:                                               ; preds = %11
  %22 = load ptr, ptr %3, align 8, !tbaa !42
  %23 = getelementptr inbounds nuw %struct.Vec_Int_t_, ptr %22, i32 0, i32 0
  %24 = load i32, ptr %23, align 8, !tbaa !71
  %25 = sext i32 %24 to i64
  %26 = mul i64 4, %25
  %27 = call noalias ptr @malloc(i64 noundef %26) #12
  br label %29

28:                                               ; preds = %11
  br label %29

29:                                               ; preds = %28, %21
  %30 = phi ptr [ %27, %21 ], [ null, %28 ]
  %31 = load ptr, ptr %3, align 8, !tbaa !42
  %32 = getelementptr inbounds nuw %struct.Vec_Int_t_, ptr %31, i32 0, i32 2
  store ptr %30, ptr %32, align 8, !tbaa !43
  %33 = load ptr, ptr %3, align 8, !tbaa !42
  call void @llvm.lifetime.end.p0(i64 8, ptr %3) #9
  ret ptr %33
}

; Function Attrs: inlinehint nounwind uwtable
define internal i32 @Vec_PtrSize(ptr noundef %0) #3 {
  %2 = alloca ptr, align 8
  store ptr %0, ptr %2, align 8, !tbaa !32
  %3 = load ptr, ptr %2, align 8, !tbaa !32
  %4 = getelementptr inbounds nuw %struct.Vec_Ptr_t_, ptr %3, i32 0, i32 1
  %5 = load i32, ptr %4, align 4, !tbaa !33
  ret i32 %5
}

; Function Attrs: nounwind uwtable
define float @Saig_ManComputeSwitching(i32 noundef %0, i32 noundef %1) #0 {
  %3 = alloca i32, align 4
  %4 = alloca i32, align 4
  %5 = alloca i32, align 4
  store i32 %0, ptr %3, align 4, !tbaa !10
  store i32 %1, ptr %4, align 4, !tbaa !10
  call void @llvm.lifetime.start.p0(i64 4, ptr %5) #9
  %6 = load i32, ptr %4, align 4, !tbaa !10
  %7 = mul nsw i32 32, %6
  store i32 %7, ptr %5, align 4, !tbaa !10
  %8 = load i32, ptr %3, align 4, !tbaa !10
  %9 = sitofp i32 %8 to float
  %10 = fmul float 2.000000e+00, %9
  %11 = load i32, ptr %5, align 4, !tbaa !10
  %12 = sitofp i32 %11 to float
  %13 = fdiv float %10, %12
  %14 = load i32, ptr %5, align 4, !tbaa !10
  %15 = load i32, ptr %3, align 4, !tbaa !10
  %16 = sub nsw i32 %14, %15
  %17 = sitofp i32 %16 to float
  %18 = fmul float %13, %17
  %19 = load i32, ptr %5, align 4, !tbaa !10
  %20 = sitofp i32 %19 to float
  %21 = fdiv float %18, %20
  call void @llvm.lifetime.end.p0(i64 4, ptr %5) #9
  ret float %21
}

; Function Attrs: nounwind uwtable
define float @Saig_ManComputeProbOne(i32 noundef %0, i32 noundef %1) #0 {
  %3 = alloca i32, align 4
  %4 = alloca i32, align 4
  %5 = alloca i32, align 4
  store i32 %0, ptr %3, align 4, !tbaa !10
  store i32 %1, ptr %4, align 4, !tbaa !10
  call void @llvm.lifetime.start.p0(i64 4, ptr %5) #9
  %6 = load i32, ptr %4, align 4, !tbaa !10
  %7 = mul nsw i32 32, %6
  store i32 %7, ptr %5, align 4, !tbaa !10
  %8 = load i32, ptr %3, align 4, !tbaa !10
  %9 = sitofp i32 %8 to float
  %10 = load i32, ptr %5, align 4, !tbaa !10
  %11 = sitofp i32 %10 to float
  %12 = fdiv float %9, %11
  call void @llvm.lifetime.end.p0(i64 4, ptr %5) #9
  ret float %12
}

; Function Attrs: inlinehint nounwind willreturn memory(read) uwtable
define available_externally i32 @atoi(ptr noundef nonnull %0) #5 {
  %2 = alloca ptr, align 8
  store ptr %0, ptr %2, align 8, !tbaa !52
  %3 = load ptr, ptr %2, align 8, !tbaa !52
  %4 = call i64 @strtol(ptr noundef %3, ptr noundef null, i32 noundef 10) #9
  %5 = trunc i64 %4 to i32
  ret i32 %5
}

; Function Attrs: inlinehint nounwind uwtable
define internal i64 @Abc_Clock() #3 {
  %1 = alloca i64, align 8
  %2 = alloca %struct.timespec, align 8
  %3 = alloca i32, align 4
  %4 = alloca i64, align 8
  call void @llvm.lifetime.start.p0(i64 16, ptr %2) #9
  %5 = call i32 @clock_gettime(i32 noundef 1, ptr noundef %2) #9
  %6 = icmp slt i32 %5, 0
  br i1 %6, label %7, label %8

7:                                                ; preds = %0
  store i64 -1, ptr %1, align 8
  store i32 1, ptr %3, align 4
  br label %19

8:                                                ; preds = %0
  call void @llvm.lifetime.start.p0(i64 8, ptr %4) #9
  %9 = getelementptr inbounds nuw %struct.timespec, ptr %2, i32 0, i32 0
  %10 = load i64, ptr %9, align 8, !tbaa !72
  %11 = mul nsw i64 %10, 1000000
  store i64 %11, ptr %4, align 8, !tbaa !47
  %12 = getelementptr inbounds nuw %struct.timespec, ptr %2, i32 0, i32 1
  %13 = load i64, ptr %12, align 8, !tbaa !74
  %14 = mul nsw i64 %13, 1000000
  %15 = sdiv i64 %14, 1000000000
  %16 = load i64, ptr %4, align 8, !tbaa !47
  %17 = add nsw i64 %16, %15
  store i64 %17, ptr %4, align 8, !tbaa !47
  %18 = load i64, ptr %4, align 8, !tbaa !47
  store i64 %18, ptr %1, align 8
  store i32 1, ptr %3, align 4
  call void @llvm.lifetime.end.p0(i64 8, ptr %4) #9
  br label %19

19:                                               ; preds = %8, %7
  call void @llvm.lifetime.end.p0(i64 16, ptr %2) #9
  %20 = load i64, ptr %1, align 8
  ret i64 %20
}

; Function Attrs: inlinehint nounwind uwtable
define internal ptr @Vec_IntStart(i32 noundef %0) #3 {
  %2 = alloca i32, align 4
  %3 = alloca ptr, align 8
  store i32 %0, ptr %2, align 4, !tbaa !10
  call void @llvm.lifetime.start.p0(i64 8, ptr %3) #9
  %4 = load i32, ptr %2, align 4, !tbaa !10
  %5 = call ptr @Vec_IntAlloc(i32 noundef %4)
  store ptr %5, ptr %3, align 8, !tbaa !42
  %6 = load i32, ptr %2, align 4, !tbaa !10
  %7 = load ptr, ptr %3, align 8, !tbaa !42
  %8 = getelementptr inbounds nuw %struct.Vec_Int_t_, ptr %7, i32 0, i32 1
  store i32 %6, ptr %8, align 4, !tbaa !51
  %9 = load ptr, ptr %3, align 8, !tbaa !42
  %10 = getelementptr inbounds nuw %struct.Vec_Int_t_, ptr %9, i32 0, i32 2
  %11 = load ptr, ptr %10, align 8, !tbaa !43
  %12 = icmp ne ptr %11, null
  br i1 %12, label %13, label %20

13:                                               ; preds = %1
  %14 = load ptr, ptr %3, align 8, !tbaa !42
  %15 = getelementptr inbounds nuw %struct.Vec_Int_t_, ptr %14, i32 0, i32 2
  %16 = load ptr, ptr %15, align 8, !tbaa !43
  %17 = load i32, ptr %2, align 4, !tbaa !10
  %18 = sext i32 %17 to i64
  %19 = mul i64 4, %18
  call void @llvm.memset.p0.i64(ptr align 4 %16, i8 0, i64 %19, i1 false)
  br label %20

20:                                               ; preds = %13, %1
  %21 = load ptr, ptr %3, align 8, !tbaa !42
  call void @llvm.lifetime.end.p0(i64 8, ptr %3) #9
  ret ptr %21
}

; Function Attrs: inlinehint nounwind uwtable
define internal i32 @Aig_ManObjNumMax(ptr noundef %0) #3 {
  %2 = alloca ptr, align 8
  store ptr %0, ptr %2, align 8, !tbaa !3
  %3 = load ptr, ptr %2, align 8, !tbaa !3
  %4 = getelementptr inbounds nuw %struct.Aig_Man_t_, ptr %3, i32 0, i32 4
  %5 = load ptr, ptr %4, align 8, !tbaa !12
  %6 = call i32 @Vec_PtrSize(ptr noundef %5)
  ret i32 %6
}

; Function Attrs: nounwind uwtable
define ptr @Saig_ManComputeSwitchProb4s(ptr noundef %0, i32 noundef %1, i32 noundef %2, i32 noundef %3) #0 {
  %5 = alloca ptr, align 8
  %6 = alloca i32, align 4
  %7 = alloca i32, align 4
  %8 = alloca i32, align 4
  %9 = alloca ptr, align 8
  %10 = alloca ptr, align 8
  %11 = alloca ptr, align 8
  %12 = alloca ptr, align 8
  %13 = alloca i32, align 4
  %14 = alloca i64, align 8
  store ptr %0, ptr %5, align 8, !tbaa !3
  store i32 %1, ptr %6, align 4, !tbaa !10
  store i32 %2, ptr %7, align 4, !tbaa !10
  store i32 %3, ptr %8, align 4, !tbaa !10
  call void @llvm.lifetime.start.p0(i64 8, ptr %9) #9
  call void @llvm.lifetime.start.p0(i64 8, ptr %10) #9
  call void @llvm.lifetime.start.p0(i64 8, ptr %11) #9
  call void @llvm.lifetime.start.p0(i64 8, ptr %12) #9
  call void @llvm.lifetime.start.p0(i64 4, ptr %13) #9
  call void @llvm.lifetime.start.p0(i64 8, ptr %14) #9
  %15 = load ptr, ptr %5, align 8, !tbaa !3
  %16 = call i32 @Aig_ManObjNumMax(ptr noundef %15)
  %17 = call ptr @Vec_IntStart(i32 noundef %16)
  store ptr %17, ptr %11, align 8, !tbaa !42
  %18 = load ptr, ptr %11, align 8, !tbaa !42
  %19 = getelementptr inbounds nuw %struct.Vec_Int_t_, ptr %18, i32 0, i32 2
  %20 = load ptr, ptr %19, align 8, !tbaa !43
  store ptr %20, ptr %12, align 8, !tbaa !45
  %21 = call i64 @Abc_Clock()
  store i64 %21, ptr %14, align 8, !tbaa !47
  %22 = load ptr, ptr %5, align 8, !tbaa !3
  %23 = call ptr @Saig_ManCreateMan(ptr noundef %22)
  store ptr %23, ptr %9, align 8, !tbaa !8
  %24 = call i32 @Aig_ManRandom(i32 noundef 1)
  %25 = load i32, ptr %6, align 4, !tbaa !10
  store i32 %25, ptr %13, align 4, !tbaa !10
  %26 = call ptr @Abc_FrameReadFlag(ptr noundef @.str)
  %27 = icmp ne ptr %26, null
  br i1 %27, label %28, label %31

28:                                               ; preds = %4
  %29 = call ptr @Abc_FrameReadFlag(ptr noundef @.str)
  %30 = call i32 @atoi(ptr noundef %29) #11
  store i32 %30, ptr %13, align 4, !tbaa !10
  br label %31

31:                                               ; preds = %28, %4
  %32 = load i32, ptr %13, align 4, !tbaa !10
  %33 = load i32, ptr %7, align 4, !tbaa !10
  %34 = icmp sle i32 %32, %33
  br i1 %34, label %35, label %42

35:                                               ; preds = %31
  %36 = load i32, ptr %13, align 4, !tbaa !10
  %37 = load i32, ptr %7, align 4, !tbaa !10
  %38 = call i32 (ptr, ...) @printf(ptr noundef @.str.1, i32 noundef %36, i32 noundef %37)
  %39 = load i32, ptr %6, align 4, !tbaa !10
  %40 = call i32 (ptr, ...) @printf(ptr noundef @.str.2, i32 noundef %39)
  %41 = load i32, ptr %6, align 4, !tbaa !10
  store i32 %41, ptr %13, align 4, !tbaa !10
  br label %42

42:                                               ; preds = %35, %31
  %43 = call i64 @Abc_Clock()
  store i64 %43, ptr %14, align 8, !tbaa !47
  %44 = load ptr, ptr %9, align 8, !tbaa !8
  %45 = load i32, ptr %13, align 4, !tbaa !10
  %46 = load i32, ptr %7, align 4, !tbaa !10
  call void @Saig_ManSimulateFrames(ptr noundef %44, i32 noundef %45, i32 noundef %46)
  %47 = call i64 @Abc_Clock()
  store i64 %47, ptr %14, align 8, !tbaa !47
  %48 = load ptr, ptr %9, align 8, !tbaa !8
  store ptr %48, ptr %10, align 8, !tbaa !8
  br label %49

49:                                               ; preds = %93, %42
  %50 = load ptr, ptr %10, align 8, !tbaa !8
  %51 = getelementptr inbounds nuw %struct.Saig_SimObj_t_, ptr %50, i32 0, i32 2
  %52 = load i32, ptr %51, align 4
  %53 = and i32 %52, 255
  %54 = icmp ne i32 %53, 7
  br i1 %54, label %55, label %96

55:                                               ; preds = %49
  %56 = load i32, ptr %8, align 4, !tbaa !10
  %57 = icmp ne i32 %56, 0
  br i1 %57, label %58, label %75

58:                                               ; preds = %55
  %59 = load ptr, ptr %10, align 8, !tbaa !8
  %60 = getelementptr inbounds nuw %struct.Saig_SimObj_t_, ptr %59, i32 0, i32 2
  %61 = load i32, ptr %60, align 4
  %62 = lshr i32 %61, 8
  %63 = load i32, ptr %13, align 4, !tbaa !10
  %64 = load i32, ptr %7, align 4, !tbaa !10
  %65 = sub nsw i32 %63, %64
  %66 = call float @Saig_ManComputeProbOne(i32 noundef %62, i32 noundef %65)
  %67 = load ptr, ptr %12, align 8, !tbaa !45
  %68 = load ptr, ptr %10, align 8, !tbaa !8
  %69 = load ptr, ptr %9, align 8, !tbaa !8
  %70 = ptrtoint ptr %68 to i64
  %71 = ptrtoint ptr %69 to i64
  %72 = sub i64 %70, %71
  %73 = sdiv exact i64 %72, 16
  %74 = getelementptr inbounds float, ptr %67, i64 %73
  store float %66, ptr %74, align 4, !tbaa !48
  br label %92

75:                                               ; preds = %55
  %76 = load ptr, ptr %10, align 8, !tbaa !8
  %77 = getelementptr inbounds nuw %struct.Saig_SimObj_t_, ptr %76, i32 0, i32 2
  %78 = load i32, ptr %77, align 4
  %79 = lshr i32 %78, 8
  %80 = load i32, ptr %13, align 4, !tbaa !10
  %81 = load i32, ptr %7, align 4, !tbaa !10
  %82 = sub nsw i32 %80, %81
  %83 = call float @Saig_ManComputeSwitching(i32 noundef %79, i32 noundef %82)
  %84 = load ptr, ptr %12, align 8, !tbaa !45
  %85 = load ptr, ptr %10, align 8, !tbaa !8
  %86 = load ptr, ptr %9, align 8, !tbaa !8
  %87 = ptrtoint ptr %85 to i64
  %88 = ptrtoint ptr %86 to i64
  %89 = sub i64 %87, %88
  %90 = sdiv exact i64 %89, 16
  %91 = getelementptr inbounds float, ptr %84, i64 %90
  store float %83, ptr %91, align 4, !tbaa !48
  br label %92

92:                                               ; preds = %75, %58
  br label %93

93:                                               ; preds = %92
  %94 = load ptr, ptr %10, align 8, !tbaa !8
  %95 = getelementptr inbounds nuw %struct.Saig_SimObj_t_, ptr %94, i32 1
  store ptr %95, ptr %10, align 8, !tbaa !8
  br label %49, !llvm.loop !50

96:                                               ; preds = %49
  %97 = load ptr, ptr %9, align 8, !tbaa !8
  %98 = icmp ne ptr %97, null
  br i1 %98, label %99, label %101

99:                                               ; preds = %96
  %100 = load ptr, ptr %9, align 8, !tbaa !8
  call void @free(ptr noundef %100) #9
  store ptr null, ptr %9, align 8, !tbaa !8
  br label %102

101:                                              ; preds = %96
  br label %102

102:                                              ; preds = %101, %99
  %103 = load ptr, ptr %11, align 8, !tbaa !42
  call void @llvm.lifetime.end.p0(i64 8, ptr %14) #9
  call void @llvm.lifetime.end.p0(i64 4, ptr %13) #9
  call void @llvm.lifetime.end.p0(i64 8, ptr %12) #9
  call void @llvm.lifetime.end.p0(i64 8, ptr %11) #9
  call void @llvm.lifetime.end.p0(i64 8, ptr %10) #9
  call void @llvm.lifetime.end.p0(i64 8, ptr %9) #9
  ret ptr %103
}