; Function Attrs: nounwind uwtable
define noalias noundef ptr @Saig_ManComputeSwitchProb4s(ptr noundef readonly captures(none) %0, i32 noundef %1, i32 noundef %2, i32 noundef %3) local_unnamed_addr #3 {
  %5 = alloca %struct.timespec, align 8
  %6 = alloca %struct.timespec, align 8
  %7 = alloca %struct.timespec, align 8
  %8 = getelementptr i8, ptr %0, i64 32
  %.val = load ptr, ptr %8, align 8, !tbaa !3
  %9 = getelementptr i8, ptr %.val, i64 4
  %.val.val = load i32, ptr %9, align 4, !tbaa !21
  %10 = tail call noalias dereferenceable_or_null(16) ptr @malloc(i64 noundef 16) #20
  %11 = add i32 %.val.val, -1
  %or.cond.i.i = icmp ult i32 %11, 15
  %spec.store.select.i.i = select i1 %or.cond.i.i, i32 16, i32 %.val.val
  %12 = getelementptr inbounds nuw i8, ptr %10, i64 4
  store i32 %spec.store.select.i.i, ptr %10, align 8, !tbaa !40
  %.not.i.i = icmp eq i32 %spec.store.select.i.i, 0
  br i1 %.not.i.i, label %Vec_IntAlloc.exit.thread.i, label %Vec_IntAlloc.exit.i

Vec_IntAlloc.exit.thread.i:                       ; preds = %4
  %13 = getelementptr inbounds nuw i8, ptr %10, i64 8
  store ptr null, ptr %13, align 8, !tbaa !42
  store i32 %.val.val, ptr %12, align 4, !tbaa !43
  br label %Vec_IntStart.exit

Vec_IntAlloc.exit.i:                              ; preds = %4
  %14 = sext i32 %spec.store.select.i.i to i64
  %15 = shl nsw i64 %14, 2
  %16 = tail call noalias ptr @malloc(i64 noundef %15) #20
  %17 = getelementptr inbounds nuw i8, ptr %10, i64 8
  store ptr %16, ptr %17, align 8, !tbaa !42
  store i32 %.val.val, ptr %12, align 4, !tbaa !43
  %.not.i = icmp eq ptr %16, null
  br i1 %.not.i, label %Vec_IntStart.exit, label %18

18:                                               ; preds = %Vec_IntAlloc.exit.i
  %19 = sext i32 %.val.val to i64
  %20 = shl nsw i64 %19, 2
  tail call void @llvm.memset.p0.i64(ptr nonnull align 4 %16, i8 0, i64 %20, i1 false)
  br label %Vec_IntStart.exit

Vec_IntStart.exit:                                ; preds = %Vec_IntAlloc.exit.thread.i, %Vec_IntAlloc.exit.i, %18
  %21 = phi ptr [ null, %Vec_IntAlloc.exit.thread.i ], [ null, %Vec_IntAlloc.exit.i ], [ %16, %18 ]
  call void @llvm.lifetime.start.p0(i64 16, ptr nonnull %7) #19
  %22 = call i32 @clock_gettime(i32 noundef 1, ptr noundef nonnull %7) #19
  call void @llvm.lifetime.end.p0(i64 16, ptr nonnull %7) #19
  %23 = call ptr @Saig_ManCreateMan(ptr noundef nonnull %0)
  %24 = call i32 @Aig_ManRandom(i32 noundef 1) #19
  %25 = call ptr @Abc_FrameReadFlag(ptr noundef nonnull @.str) #19
  %.not = icmp eq ptr %25, null
  br i1 %.not, label %30, label %26

26:                                               ; preds = %Vec_IntStart.exit
  %27 = call ptr @Abc_FrameReadFlag(ptr noundef nonnull @.str) #19
  %28 = call i64 @strtol(ptr noundef nonnull captures(none) %27, ptr noundef null, i32 noundef 10) #19
  %29 = trunc i64 %28 to i32
  br label %30

30:                                               ; preds = %26, %Vec_IntStart.exit
  %.0 = phi i32 [ %29, %26 ], [ %1, %Vec_IntStart.exit ]
  %.not34 = icmp sgt i32 %.0, %2
  br i1 %.not34, label %Abc_Clock.exit39, label %31

31:                                               ; preds = %30
  %32 = call i32 (ptr, ...) @printf(ptr noundef nonnull dereferenceable(1) @.str.1, i32 noundef %.0, i32 noundef %2)
  %33 = call i32 (ptr, ...) @printf(ptr noundef nonnull dereferenceable(1) @.str.2, i32 noundef %1)
  br label %Abc_Clock.exit39

Abc_Clock.exit39:                                 ; preds = %31, %30
  %.1 = phi i32 [ %1, %31 ], [ %.0, %30 ]
  call void @llvm.lifetime.start.p0(i64 16, ptr nonnull %6) #19
  %34 = call i32 @clock_gettime(i32 noundef 1, ptr noundef nonnull %6) #19
  call void @llvm.lifetime.end.p0(i64 16, ptr nonnull %6) #19
  call void @Saig_ManSimulateFrames(ptr noundef %23, i32 noundef %.1, i32 noundef %2)
  call void @llvm.lifetime.start.p0(i64 16, ptr nonnull %5) #19
  %35 = call i32 @clock_gettime(i32 noundef 1, ptr noundef nonnull %5) #19
  call void @llvm.lifetime.end.p0(i64 16, ptr nonnull %5) #19
  %36 = getelementptr inbounds nuw i8, ptr %23, i64 8
  %37 = load i32, ptr %36, align 4
  %38 = and i32 %37, 255
  %.not3542 = icmp eq i32 %38, 7
  br i1 %.not3542, label %._crit_edge.thread, label %.lr.ph

.lr.ph:                                           ; preds = %Abc_Clock.exit39
  %.not37 = icmp eq i32 %3, 0
  %39 = sub nsw i32 %.1, %2
  %40 = shl nsw i32 %39, 5
  %41 = sitofp i32 %40 to float
  %42 = ptrtoint ptr %23 to i64
  br i1 %.not37, label %.lr.ph.split.us, label %.lr.ph.split

.lr.ph.split.us:                                  ; preds = %.lr.ph, %.lr.ph.split.us
  %43 = phi i32 [ %58, %.lr.ph.split.us ], [ %37, %.lr.ph ]
  %.03143.us = phi ptr [ %56, %.lr.ph.split.us ], [ %23, %.lr.ph ]
  %44 = lshr i32 %43, 8
  %45 = shl nuw nsw i32 %44, 1
  %46 = uitofp nneg i32 %45 to float
  %47 = fdiv float %46, %41
  %48 = sub nsw i32 %40, %44
  %49 = sitofp i32 %48 to float
  %50 = fmul float %47, %49
  %51 = fdiv float %50, %41
  %52 = ptrtoint ptr %.03143.us to i64
  %53 = sub i64 %52, %42
  %54 = ashr exact i64 %53, 2
  %55 = getelementptr inbounds i8, ptr %21, i64 %54
  store float %51, ptr %55, align 4, !tbaa !44
  %56 = getelementptr inbounds nuw i8, ptr %.03143.us, i64 16
  %57 = getelementptr inbounds nuw i8, ptr %.03143.us, i64 24
  %58 = load i32, ptr %57, align 4
  %59 = and i32 %58, 255
  %.not35.us = icmp eq i32 %59, 7
  br i1 %.not35.us, label %._crit_edge, label %.lr.ph.split.us, !llvm.loop !46

.lr.ph.split:                                     ; preds = %.lr.ph, %.lr.ph.split
  %60 = phi i32 [ %70, %.lr.ph.split ], [ %37, %.lr.ph ]
  %.03143 = phi ptr [ %68, %.lr.ph.split ], [ %23, %.lr.ph ]
  %61 = lshr i32 %60, 8
  %62 = uitofp nneg i32 %61 to float
  %63 = fdiv float %62, %41
  %64 = ptrtoint ptr %.03143 to i64
  %65 = sub i64 %64, %42
  %66 = ashr exact i64 %65, 2
  %67 = getelementptr inbounds i8, ptr %21, i64 %66
  store float %63, ptr %67, align 4, !tbaa !44
  %68 = getelementptr inbounds nuw i8, ptr %.03143, i64 16
  %69 = getelementptr inbounds nuw i8, ptr %.03143, i64 24
  %70 = load i32, ptr %69, align 4
  %71 = and i32 %70, 255
  %.not35 = icmp eq i32 %71, 7
  br i1 %.not35, label %._crit_edge, label %.lr.ph.split, !llvm.loop !46

._crit_edge:                                      ; preds = %.lr.ph.split, %.lr.ph.split.us
  %.not36 = icmp eq ptr %23, null
  br i1 %.not36, label %72, label %._crit_edge.thread

._crit_edge.thread:                               ; preds = %Abc_Clock.exit39, %._crit_edge
  call void @free(ptr noundef nonnull %23) #19
  br label %72

72:                                               ; preds = %._crit_edge, %._crit_edge.thread
  ret ptr %10
}